target datalayout = "e-m:e-p270:32:32-p271:32:32-p272:64:64-i64:64-i128:128-f80:128-n8:16:32:64-S128"
target triple = "x86_64-pc-linux-gnu"

%union.pthread_mutex_t = type { %struct.__pthread_mutex_s }
%struct.__pthread_mutex_s = type { i32, i32, i32, i32, i32, i16, i16, %struct.__pthread_internal_list }
%struct.__pthread_internal_list = type { ptr, ptr }
%union.pthread_cond_t = type { %struct.__pthread_cond_s }
%struct.__pthread_cond_s = type { %union.__atomic_wide_counter, %union.__atomic_wide_counter, [2 x i32], [2 x i32], i32, i32, [2 x i32] }
%union.__atomic_wide_counter = type { i64 }
%struct.list = type { ptr, ptr, ptr, ptr, ptr, i64 }

@bio_mutex = internal global [3 x %union.pthread_mutex_t] zeroinitializer, align 16
@bio_newjob_cond = internal global [3 x %union.pthread_cond_t] zeroinitializer, align 16
@bio_jobs = internal global [3 x ptr] zeroinitializer, align 16
@bio_job_to_worker = internal global [7 x i32] [i32 0, i32 1, i32 2, i32 1, i32 0, i32 1, i32 2], align 16

; Function Attrs: nounwind uwtable
define dso_local void @bioDrainWorker(i32 noundef %0) #0 {
  %2 = alloca i32, align 4
  %3 = alloca i64, align 8
  store i32 %0, ptr %2, align 4, !tbaa !42
  call void @llvm.lifetime.start.p0(i64 8, ptr %3) #9
  %4 = load i32, ptr %2, align 4, !tbaa !42
  %5 = sext i32 %4 to i64
  %6 = getelementptr inbounds [7 x i32], ptr @bio_job_to_worker, i64 0, i64 %5
  %7 = load i32, ptr %6, align 4, !tbaa !42
  %8 = zext i32 %7 to i64
  store i64 %8, ptr %3, align 8, !tbaa !5
  %9 = load i64, ptr %3, align 8, !tbaa !5
  %10 = getelementptr inbounds nuw [3 x %union.pthread_mutex_t], ptr @bio_mutex, i64 0, i64 %9
  %11 = call i32 @pthread_mutex_lock(ptr noundef %10) #9
  br label %12

12:                                               ; preds = %19, %1
  %13 = load i64, ptr %3, align 8, !tbaa !5
  %14 = getelementptr inbounds nuw [3 x ptr], ptr @bio_jobs, i64 0, i64 %13
  %15 = load ptr, ptr %14, align 8, !tbaa !9
  %16 = getelementptr inbounds nuw %struct.list, ptr %15, i32 0, i32 5
  %17 = load i64, ptr %16, align 8, !tbaa !49
  %18 = icmp ugt i64 %17, 0
  br i1 %18, label %19, label %25

19:                                               ; preds = %12
  %20 = load i64, ptr %3, align 8, !tbaa !5
  %21 = getelementptr inbounds nuw [3 x %union.pthread_cond_t], ptr @bio_newjob_cond, i64 0, i64 %20
  %22 = load i64, ptr %3, align 8, !tbaa !5
  %23 = getelementptr inbounds nuw [3 x %union.pthread_mutex_t], ptr @bio_mutex, i64 0, i64 %22
  %24 = call i32 @pthread_cond_wait(ptr noundef %21, ptr noundef %23)
  br label %12, !llvm.loop !70

25:                                               ; preds = %12
  %26 = load i64, ptr %3, align 8, !tbaa !5
  %27 = getelementptr inbounds nuw [3 x %union.pthread_mutex_t], ptr @bio_mutex, i64 0, i64 %26
  %28 = call i32 @pthread_mutex_unlock(ptr noundef %27) #9
  call void @llvm.lifetime.end.p0(i64 8, ptr %3) #9
  ret void
}