; Function Attrs: nounwind uwtable
define dso_local void @bioDrainWorker(i32 noundef %0) local_unnamed_addr #0 {
  %2 = sext i32 %0 to i64
  %3 = getelementptr inbounds [7 x i32], ptr @bio_job_to_worker, i64 0, i64 %2
  %4 = load i32, ptr %3, align 4, !tbaa !41
  %5 = zext i32 %4 to i64
  %6 = getelementptr inbounds nuw [3 x %union.pthread_mutex_t], ptr @bio_mutex, i64 0, i64 %5
  %7 = tail call i32 @pthread_mutex_lock(ptr noundef nonnull %6) #11
  %8 = getelementptr inbounds nuw [3 x ptr], ptr @bio_jobs, i64 0, i64 %5
  %9 = load ptr, ptr %8, align 8, !tbaa !5
  %10 = getelementptr inbounds nuw i8, ptr %9, i64 40
  %11 = load i64, ptr %10, align 8, !tbaa !47
  %.not6 = icmp eq i64 %11, 0
  br i1 %.not6, label %._crit_edge, label %.lr.ph

.lr.ph:                                           ; preds = %1
  %12 = getelementptr inbounds nuw [3 x %union.pthread_cond_t], ptr @bio_newjob_cond, i64 0, i64 %5
  br label %13

13:                                               ; preds = %.lr.ph, %13
  %14 = tail call i32 @pthread_cond_wait(ptr noundef nonnull %12, ptr noundef nonnull %6) #11
  %15 = load ptr, ptr %8, align 8, !tbaa !5
  %16 = getelementptr inbounds nuw i8, ptr %15, i64 40
  %17 = load i64, ptr %16, align 8, !tbaa !47
  %.not = icmp eq i64 %17, 0
  br i1 %.not, label %._crit_edge, label %13, !llvm.loop !64

._crit_edge:                                      ; preds = %13, %1
  %18 = tail call i32 @pthread_mutex_unlock(ptr noundef nonnull %6) #11
  ret void
}